target datalayout = "e-m:e-p270:32:32-p271:32:32-p272:64:64-i64:64-i128:128-f80:128-n8:16:32:64-S128"
target triple = "x86_64-pc-linux-gnu"

%class.btDefaultCollisionConfiguration = type { %class.btCollisionConfiguration, i32, ptr, i8, ptr, i8, ptr, ptr, ptr, ptr, ptr, ptr, ptr, ptr, ptr, ptr, ptr, ptr, ptr, ptr, ptr, ptr }
%class.btCollisionConfiguration = type { ptr }
%struct.btCollisionAlgorithmCreateFunc.base = type <{ ptr, i8 }>
%"struct.btConvexConvexAlgorithm::CreateFunc" = type { %struct.btCollisionAlgorithmCreateFunc.base, ptr, i32, i32 }

; Function Attrs: mustprogress nounwind uwtable
define dso_local void @_ZN31btDefaultCollisionConfiguration35setConvexConvexMultipointIterationsEii(ptr noundef nonnull align 8 dereferenceable(176) %0, i32 noundef %1, i32 noundef %2) #1 align 2 {
  %4 = alloca ptr, align 8
  %5 = alloca i32, align 4
  %6 = alloca i32, align 4
  %7 = alloca ptr, align 8
  store ptr %0, ptr %4, align 8, !tbaa !12
  store i32 %1, ptr %5, align 4, !tbaa !9
  store i32 %2, ptr %6, align 4, !tbaa !9
  %8 = load ptr, ptr %4, align 8
  call void @llvm.lifetime.start.p0(i64 8, ptr %7) #10
  %9 = getelementptr inbounds nuw %class.btDefaultCollisionConfiguration, ptr %8, i32 0, i32 7
  %10 = load ptr, ptr %9, align 8, !tbaa !28
  store ptr %10, ptr %7, align 8, !tbaa !96
  %11 = load i32, ptr %5, align 4, !tbaa !9
  %12 = load ptr, ptr %7, align 8, !tbaa !96
  %13 = getelementptr inbounds nuw %"struct.btConvexConvexAlgorithm::CreateFunc", ptr %12, i32 0, i32 2
  store i32 %11, ptr %13, align 8, !tbaa !98
  %14 = load i32, ptr %6, align 4, !tbaa !9
  %15 = load ptr, ptr %7, align 8, !tbaa !96
  %16 = getelementptr inbounds nuw %"struct.btConvexConvexAlgorithm::CreateFunc", ptr %15, i32 0, i32 3
  store i32 %14, ptr %16, align 4, !tbaa !100
  call void @llvm.lifetime.end.p0(i64 8, ptr %7) #10
  ret void
}