; Function Attrs: mustprogress nofree norecurse nosync nounwind willreturn memory(write, argmem: readwrite, inaccessiblemem: none) uwtable
define dso_local void @_ZN31btDefaultCollisionConfiguration35setConvexConvexMultipointIterationsEii(ptr noundef nonnull readonly align 8 captures(none) dereferenceable(176) %0, i32 noundef %1, i32 noundef %2) local_unnamed_addr #7 align 2 {
  %4 = getelementptr inbounds nuw i8, ptr %0, i64 56
  %5 = load ptr, ptr %4, align 8, !tbaa !19
  %6 = getelementptr inbounds nuw i8, ptr %5, i64 24
  store i32 %1, ptr %6, align 8, !tbaa !61
  %7 = getelementptr inbounds nuw i8, ptr %5, i64 28
  store i32 %2, ptr %7, align 4, !tbaa !63
  ret void
}